SF:/home/stephan/.dbx/cstepkun/woxml/src/woxml.rs
FN:154,_RNCNvMs_NtCsbki8KyO8pxI_5woxml5woxmlINtB6_9XmlWriterINtNtCshQnx6jIQVne_5alloc3vec3VechEE7ns_decl0Cs1UYGqVQrMEC_5woxml
FN:154,_RNCNvMs_NtCsbki8KyO8pxI_5woxml5woxmlINtB6_9XmlWriterINtNtCshQnx6jIQVne_5alloc3vec3VechEE7ns_decls_0Cs1UYGqVQrMEC_5woxml
FN:195,_RNvMs_NtCsbki8KyO8pxI_5woxml5woxmlINtB4_9XmlWriterINtNtCshQnx6jIQVne_5alloc3vec3VechEE10begin_elemCs1UYGqVQrMEC_5woxml
FN:215,_RNvMs_NtCsbki8KyO8pxI_5woxml5woxmlINtB4_9XmlWriterINtNtCshQnx6jIQVne_5alloc3vec3VechEE10close_elemCs1UYGqVQrMEC_5woxml
FN:256,_RNvMs_NtCsbki8KyO8pxI_5woxml5woxmlINtB4_9XmlWriterINtNtCshQnx6jIQVne_5alloc3vec3VechEE10empty_elemCs1UYGqVQrMEC_5woxml
FN:72,_RNvMs_NtCsbki8KyO8pxI_5woxml5woxmlINtB4_9XmlWriterINtNtCshQnx6jIQVne_5alloc3vec3VechEE11pretty_modeCs1UYGqVQrMEC_5woxml
FN:345,_RNvMs_NtCsbki8KyO8pxI_5woxml5woxmlINtB4_9XmlWriterINtNtCshQnx6jIQVne_5alloc3vec3VechEE11write_sliceCs1UYGqVQrMEC_5woxml
FN:57,_RNvMs_NtCsbki8KyO8pxI_5woxml5woxmlINtB4_9XmlWriterINtNtCshQnx6jIQVne_5alloc3vec3VechEE12compact_modeCs1UYGqVQrMEC_5woxml
FN:100,_RNvMs_NtCsbki8KyO8pxI_5woxml5woxmlINtB4_9XmlWriterINtNtCshQnx6jIQVne_5alloc3vec3VechEE13set_namespaceCs1UYGqVQrMEC_5woxml
FN:105,_RNvMs_NtCsbki8KyO8pxI_5woxml5woxmlINtB4_9XmlWriterINtNtCshQnx6jIQVne_5alloc3vec3VechEE15unset_namespaceCs1UYGqVQrMEC_5woxml
FN:276,_RNvMs_NtCsbki8KyO8pxI_5woxml5woxmlINtB4_9XmlWriterINtNtCshQnx6jIQVne_5alloc3vec3VechEE4attrCs1UYGqVQrMEC_5woxml
FN:323,_RNvMs_NtCsbki8KyO8pxI_5woxml5woxmlINtB4_9XmlWriterINtNtCshQnx6jIQVne_5alloc3vec3VechEE4textCs1UYGqVQrMEC_5woxml
FN:353,_RNvMs_NtCsbki8KyO8pxI_5woxml5woxmlINtB4_9XmlWriterINtNtCshQnx6jIQVne_5alloc3vec3VechEE5cdataCs1UYGqVQrMEC_5woxml
FN:387,_RNvMs_NtCsbki8KyO8pxI_5woxml5woxmlINtB4_9XmlWriterINtNtCshQnx6jIQVne_5alloc3vec3VechEE5closeCs1UYGqVQrMEC_5woxml
FN:397,_RNvMs_NtCsbki8KyO8pxI_5woxml5woxmlINtB4_9XmlWriterINtNtCshQnx6jIQVne_5alloc3vec3VechEE5flushCs1UYGqVQrMEC_5woxml
FN:337,_RNvMs_NtCsbki8KyO8pxI_5woxml5woxmlINtB4_9XmlWriterINtNtCshQnx6jIQVne_5alloc3vec3VechEE5writeCs1UYGqVQrMEC_5woxml
FN:305,_RNvMs_NtCsbki8KyO8pxI_5woxml5woxmlINtB4_9XmlWriterINtNtCshQnx6jIQVne_5alloc3vec3VechEE6escapeCs1UYGqVQrMEC_5woxml
FN:118,_RNvMs_NtCsbki8KyO8pxI_5woxml5woxmlINtB4_9XmlWriterINtNtCshQnx6jIQVne_5alloc3vec3VechEE6indentCs1UYGqVQrMEC_5woxml
FN:371,_RNvMs_NtCsbki8KyO8pxI_5woxml5woxmlINtB4_9XmlWriterINtNtCshQnx6jIQVne_5alloc3vec3VechEE7commentCs1UYGqVQrMEC_5woxml
FN:146,_RNvMs_NtCsbki8KyO8pxI_5woxml5woxmlINtB4_9XmlWriterINtNtCshQnx6jIQVne_5alloc3vec3VechEE7ns_declCs1UYGqVQrMEC_5woxml
FN:291,_RNvMs_NtCsbki8KyO8pxI_5woxml5woxmlINtB4_9XmlWriterINtNtCshQnx6jIQVne_5alloc3vec3VechEE8attr_escCs1UYGqVQrMEC_5woxml
FN:231,_RNvMs_NtCsbki8KyO8pxI_5woxml5woxmlINtB4_9XmlWriterINtNtCshQnx6jIQVne_5alloc3vec3VechEE8end_elemCs1UYGqVQrMEC_5woxml
FN:134,_RNvMs_NtCsbki8KyO8pxI_5woxml5woxmlINtB4_9XmlWriterINtNtCshQnx6jIQVne_5alloc3vec3VechEE9ns_prefixCs1UYGqVQrMEC_5woxml
FN:154,_RNCNvMs_NtCsbki8KyO8pxI_5woxml5woxmlINtB6_9XmlWriterpE7ns_decl0B8_
FN:154,_RNCNvMs_NtCsbki8KyO8pxI_5woxml5woxmlINtB6_9XmlWriterpE7ns_decls_0B8_
FN:195,_RNvMs_NtCsbki8KyO8pxI_5woxml5woxmlINtB4_9XmlWriterpE10begin_elemB6_
FN:215,_RNvMs_NtCsbki8KyO8pxI_5woxml5woxmlINtB4_9XmlWriterpE10close_elemB6_
FN:256,_RNvMs_NtCsbki8KyO8pxI_5woxml5woxmlINtB4_9XmlWriterpE10empty_elemB6_
FN:72,_RNvMs_NtCsbki8KyO8pxI_5woxml5woxmlINtB4_9XmlWriterpE11pretty_modeB6_
FN:345,_RNvMs_NtCsbki8KyO8pxI_5woxml5woxmlINtB4_9XmlWriterpE11write_sliceB6_
FN:57,_RNvMs_NtCsbki8KyO8pxI_5woxml5woxmlINtB4_9XmlWriterpE12compact_modeB6_
FN:100,_RNvMs_NtCsbki8KyO8pxI_5woxml5woxmlINtB4_9XmlWriterpE13set_namespaceB6_
FN:89,_RNvMs_NtCsbki8KyO8pxI_5woxml5woxmlINtB4_9XmlWriterpE15set_pretty_modeB6_
FN:105,_RNvMs_NtCsbki8KyO8pxI_5woxml5woxmlINtB4_9XmlWriterpE15unset_namespaceB6_
FN:84,_RNvMs_NtCsbki8KyO8pxI_5woxml5woxmlINtB4_9XmlWriterpE16set_compact_modeB6_
FN:112,_RNvMs_NtCsbki8KyO8pxI_5woxml5woxmlINtB4_9XmlWriterpE3dtdB6_
FN:276,_RNvMs_NtCsbki8KyO8pxI_5woxml5woxmlINtB4_9XmlWriterpE4attrB6_
FN:163,_RNvMs_NtCsbki8KyO8pxI_5woxml5woxmlINtB4_9XmlWriterpE4elemB6_
FN:323,_RNvMs_NtCsbki8KyO8pxI_5woxml5woxmlINtB4_9XmlWriterpE4textB6_
FN:353,_RNvMs_NtCsbki8KyO8pxI_5woxml5woxmlINtB4_9XmlWriterpE5cdataB6_
FN:387,_RNvMs_NtCsbki8KyO8pxI_5woxml5woxmlINtB4_9XmlWriterpE5closeB6_
FN:397,_RNvMs_NtCsbki8KyO8pxI_5woxml5woxmlINtB4_9XmlWriterpE5flushB6_
FN:337,_RNvMs_NtCsbki8KyO8pxI_5woxml5woxmlINtB4_9XmlWriterpE5writeB6_
FN:305,_RNvMs_NtCsbki8KyO8pxI_5woxml5woxmlINtB4_9XmlWriterpE6escapeB6_
FN:118,_RNvMs_NtCsbki8KyO8pxI_5woxml5woxmlINtB4_9XmlWriterpE6indentB6_
FN:371,_RNvMs_NtCsbki8KyO8pxI_5woxml5woxmlINtB4_9XmlWriterpE7commentB6_
FN:146,_RNvMs_NtCsbki8KyO8pxI_5woxml5woxmlINtB4_9XmlWriterpE7ns_declB6_
FN:291,_RNvMs_NtCsbki8KyO8pxI_5woxml5woxmlINtB4_9XmlWriterpE8attr_escB6_
FN:231,_RNvMs_NtCsbki8KyO8pxI_5woxml5woxmlINtB4_9XmlWriterpE8end_elemB6_
FN:176,_RNvMs_NtCsbki8KyO8pxI_5woxml5woxmlINtB4_9XmlWriterpE9elem_textB6_
FN:95,_RNvMs_NtCsbki8KyO8pxI_5woxml5woxmlINtB4_9XmlWriterpE9namespaceB6_
FN:134,_RNvMs_NtCsbki8KyO8pxI_5woxml5woxmlINtB4_9XmlWriterpE9ns_prefixB6_
FN:48,_RNvXININtCsbki8KyO8pxI_5woxml5woxml0pEINtB5_9XmlWriterpENtNtCs8eLU2w1HFUD_4core3fmt5Debug3fmtB7_
FN:154,_RNCNvMs_NtCsbki8KyO8pxI_5woxml5woxmlINtB6_9XmlWriterINtNtCshQnx6jIQVne_5alloc3vec3VechEE7ns_decl0Cscvny05FXxD1_5woxml
FN:154,_RNCNvMs_NtCsbki8KyO8pxI_5woxml5woxmlINtB6_9XmlWriterINtNtCshQnx6jIQVne_5alloc3vec3VechEE7ns_decls_0Cscvny05FXxD1_5woxml
FN:154,_RNCNvMs_NtCsbki8KyO8pxI_5woxml5woxmlINtB6_9XmlWriterNtNtCsa1TR6AkgUFY_5bytes9bytes_mut8BytesMutE7ns_decl0Cscvny05FXxD1_5woxml
FN:154,_RNCNvMs_NtCsbki8KyO8pxI_5woxml5woxmlINtB6_9XmlWriterNtNtCsa1TR6AkgUFY_5bytes9bytes_mut8BytesMutE7ns_decls_0Cscvny05FXxD1_5woxml
FN:195,_RNvMs_NtCsbki8KyO8pxI_5woxml5woxmlINtB4_9XmlWriterINtNtCshQnx6jIQVne_5alloc3vec3VechEE10begin_elemCscvny05FXxD1_5woxml
FN:215,_RNvMs_NtCsbki8KyO8pxI_5woxml5woxmlINtB4_9XmlWriterINtNtCshQnx6jIQVne_5alloc3vec3VechEE10close_elemCscvny05FXxD1_5woxml
FN:256,_RNvMs_NtCsbki8KyO8pxI_5woxml5woxmlINtB4_9XmlWriterINtNtCshQnx6jIQVne_5alloc3vec3VechEE10empty_elemCscvny05FXxD1_5woxml
FN:72,_RNvMs_NtCsbki8KyO8pxI_5woxml5woxmlINtB4_9XmlWriterINtNtCshQnx6jIQVne_5alloc3vec3VechEE11pretty_modeCscvny05FXxD1_5woxml
FN:345,_RNvMs_NtCsbki8KyO8pxI_5woxml5woxmlINtB4_9XmlWriterINtNtCshQnx6jIQVne_5alloc3vec3VechEE11write_sliceCscvny05FXxD1_5woxml
FN:57,_RNvMs_NtCsbki8KyO8pxI_5woxml5woxmlINtB4_9XmlWriterINtNtCshQnx6jIQVne_5alloc3vec3VechEE12compact_modeCscvny05FXxD1_5woxml
FN:100,_RNvMs_NtCsbki8KyO8pxI_5woxml5woxmlINtB4_9XmlWriterINtNtCshQnx6jIQVne_5alloc3vec3VechEE13set_namespaceCscvny05FXxD1_5woxml
FN:89,_RNvMs_NtCsbki8KyO8pxI_5woxml5woxmlINtB4_9XmlWriterINtNtCshQnx6jIQVne_5alloc3vec3VechEE15set_pretty_modeCscvny05FXxD1_5woxml
FN:105,_RNvMs_NtCsbki8KyO8pxI_5woxml5woxmlINtB4_9XmlWriterINtNtCshQnx6jIQVne_5alloc3vec3VechEE15unset_namespaceCscvny05FXxD1_5woxml
FN:84,_RNvMs_NtCsbki8KyO8pxI_5woxml5woxmlINtB4_9XmlWriterINtNtCshQnx6jIQVne_5alloc3vec3VechEE16set_compact_modeCscvny05FXxD1_5woxml
FN:112,_RNvMs_NtCsbki8KyO8pxI_5woxml5woxmlINtB4_9XmlWriterINtNtCshQnx6jIQVne_5alloc3vec3VechEE3dtdCscvny05FXxD1_5woxml
FN:276,_RNvMs_NtCsbki8KyO8pxI_5woxml5woxmlINtB4_9XmlWriterINtNtCshQnx6jIQVne_5alloc3vec3VechEE4attrCscvny05FXxD1_5woxml
FN:163,_RNvMs_NtCsbki8KyO8pxI_5woxml5woxmlINtB4_9XmlWriterINtNtCshQnx6jIQVne_5alloc3vec3VechEE4elemCscvny05FXxD1_5woxml
FN:323,_RNvMs_NtCsbki8KyO8pxI_5woxml5woxmlINtB4_9XmlWriterINtNtCshQnx6jIQVne_5alloc3vec3VechEE4textCscvny05FXxD1_5woxml
FN:353,_RNvMs_NtCsbki8KyO8pxI_5woxml5woxmlINtB4_9XmlWriterINtNtCshQnx6jIQVne_5alloc3vec3VechEE5cdataCscvny05FXxD1_5woxml
FN:387,_RNvMs_NtCsbki8KyO8pxI_5woxml5woxmlINtB4_9XmlWriterINtNtCshQnx6jIQVne_5alloc3vec3VechEE5closeCscvny05FXxD1_5woxml
FN:397,_RNvMs_NtCsbki8KyO8pxI_5woxml5woxmlINtB4_9XmlWriterINtNtCshQnx6jIQVne_5alloc3vec3VechEE5flushCscvny05FXxD1_5woxml
FN:337,_RNvMs_NtCsbki8KyO8pxI_5woxml5woxmlINtB4_9XmlWriterINtNtCshQnx6jIQVne_5alloc3vec3VechEE5writeCscvny05FXxD1_5woxml
FN:305,_RNvMs_NtCsbki8KyO8pxI_5woxml5woxmlINtB4_9XmlWriterINtNtCshQnx6jIQVne_5alloc3vec3VechEE6escapeCscvny05FXxD1_5woxml
FN:118,_RNvMs_NtCsbki8KyO8pxI_5woxml5woxmlINtB4_9XmlWriterINtNtCshQnx6jIQVne_5alloc3vec3VechEE6indentCscvny05FXxD1_5woxml
FN:371,_RNvMs_NtCsbki8KyO8pxI_5woxml5woxmlINtB4_9XmlWriterINtNtCshQnx6jIQVne_5alloc3vec3VechEE7commentCscvny05FXxD1_5woxml
FN:146,_RNvMs_NtCsbki8KyO8pxI_5woxml5woxmlINtB4_9XmlWriterINtNtCshQnx6jIQVne_5alloc3vec3VechEE7ns_declCscvny05FXxD1_5woxml
FN:291,_RNvMs_NtCsbki8KyO8pxI_5woxml5woxmlINtB4_9XmlWriterINtNtCshQnx6jIQVne_5alloc3vec3VechEE8attr_escCscvny05FXxD1_5woxml
FN:231,_RNvMs_NtCsbki8KyO8pxI_5woxml5woxmlINtB4_9XmlWriterINtNtCshQnx6jIQVne_5alloc3vec3VechEE8end_elemCscvny05FXxD1_5woxml
FN:176,_RNvMs_NtCsbki8KyO8pxI_5woxml5woxmlINtB4_9XmlWriterINtNtCshQnx6jIQVne_5alloc3vec3VechEE9elem_textCscvny05FXxD1_5woxml
FN:95,_RNvMs_NtCsbki8KyO8pxI_5woxml5woxmlINtB4_9XmlWriterINtNtCshQnx6jIQVne_5alloc3vec3VechEE9namespaceCscvny05FXxD1_5woxml
FN:134,_RNvMs_NtCsbki8KyO8pxI_5woxml5woxmlINtB4_9XmlWriterINtNtCshQnx6jIQVne_5alloc3vec3VechEE9ns_prefixCscvny05FXxD1_5woxml
FN:195,_RNvMs_NtCsbki8KyO8pxI_5woxml5woxmlINtB4_9XmlWriterNtNtCsa1TR6AkgUFY_5bytes9bytes_mut8BytesMutE10begin_elemCscvny05FXxD1_5woxml
FN:215,_RNvMs_NtCsbki8KyO8pxI_5woxml5woxmlINtB4_9XmlWriterNtNtCsa1TR6AkgUFY_5bytes9bytes_mut8BytesMutE10close_elemCscvny05FXxD1_5woxml
FN:256,_RNvMs_NtCsbki8KyO8pxI_5woxml5woxmlINtB4_9XmlWriterNtNtCsa1TR6AkgUFY_5bytes9bytes_mut8BytesMutE10empty_elemCscvny05FXxD1_5woxml
FN:345,_RNvMs_NtCsbki8KyO8pxI_5woxml5woxmlINtB4_9XmlWriterNtNtCsa1TR6AkgUFY_5bytes9bytes_mut8BytesMutE11write_sliceCscvny05FXxD1_5woxml
FN:57,_RNvMs_NtCsbki8KyO8pxI_5woxml5woxmlINtB4_9XmlWriterNtNtCsa1TR6AkgUFY_5bytes9bytes_mut8BytesMutE12compact_modeCscvny05FXxD1_5woxml
FN:100,_RNvMs_NtCsbki8KyO8pxI_5woxml5woxmlINtB4_9XmlWriterNtNtCsa1TR6AkgUFY_5bytes9bytes_mut8BytesMutE13set_namespaceCscvny05FXxD1_5woxml
FN:105,_RNvMs_NtCsbki8KyO8pxI_5woxml5woxmlINtB4_9XmlWriterNtNtCsa1TR6AkgUFY_5bytes9bytes_mut8BytesMutE15unset_namespaceCscvny05FXxD1_5woxml
FN:276,_RNvMs_NtCsbki8KyO8pxI_5woxml5woxmlINtB4_9XmlWriterNtNtCsa1TR6AkgUFY_5bytes9bytes_mut8BytesMutE4attrCscvny05FXxD1_5woxml
FN:323,_RNvMs_NtCsbki8KyO8pxI_5woxml5woxmlINtB4_9XmlWriterNtNtCsa1TR6AkgUFY_5bytes9bytes_mut8BytesMutE4textCscvny05FXxD1_5woxml
FN:353,_RNvMs_NtCsbki8KyO8pxI_5woxml5woxmlINtB4_9XmlWriterNtNtCsa1TR6AkgUFY_5bytes9bytes_mut8BytesMutE5cdataCscvny05FXxD1_5woxml
FN:387,_RNvMs_NtCsbki8KyO8pxI_5woxml5woxmlINtB4_9XmlWriterNtNtCsa1TR6AkgUFY_5bytes9bytes_mut8BytesMutE5closeCscvny05FXxD1_5woxml
FN:397,_RNvMs_NtCsbki8KyO8pxI_5woxml5woxmlINtB4_9XmlWriterNtNtCsa1TR6AkgUFY_5bytes9bytes_mut8BytesMutE5flushCscvny05FXxD1_5woxml
FN:337,_RNvMs_NtCsbki8KyO8pxI_5woxml5woxmlINtB4_9XmlWriterNtNtCsa1TR6AkgUFY_5bytes9bytes_mut8BytesMutE5writeCscvny05FXxD1_5woxml
FN:305,_RNvMs_NtCsbki8KyO8pxI_5woxml5woxmlINtB4_9XmlWriterNtNtCsa1TR6AkgUFY_5bytes9bytes_mut8BytesMutE6escapeCscvny05FXxD1_5woxml
FN:118,_RNvMs_NtCsbki8KyO8pxI_5woxml5woxmlINtB4_9XmlWriterNtNtCsa1TR6AkgUFY_5bytes9bytes_mut8BytesMutE6indentCscvny05FXxD1_5woxml
FN:371,_RNvMs_NtCsbki8KyO8pxI_5woxml5woxmlINtB4_9XmlWriterNtNtCsa1TR6AkgUFY_5bytes9bytes_mut8BytesMutE7commentCscvny05FXxD1_5woxml
FN:146,_RNvMs_NtCsbki8KyO8pxI_5woxml5woxmlINtB4_9XmlWriterNtNtCsa1TR6AkgUFY_5bytes9bytes_mut8BytesMutE7ns_declCscvny05FXxD1_5woxml
FN:291,_RNvMs_NtCsbki8KyO8pxI_5woxml5woxmlINtB4_9XmlWriterNtNtCsa1TR6AkgUFY_5bytes9bytes_mut8BytesMutE8attr_escCscvny05FXxD1_5woxml
FN:231,_RNvMs_NtCsbki8KyO8pxI_5woxml5woxmlINtB4_9XmlWriterNtNtCsa1TR6AkgUFY_5bytes9bytes_mut8BytesMutE8end_elemCscvny05FXxD1_5woxml
FN:134,_RNvMs_NtCsbki8KyO8pxI_5woxml5woxmlINtB4_9XmlWriterNtNtCsa1TR6AkgUFY_5bytes9bytes_mut8BytesMutE9ns_prefixCscvny05FXxD1_5woxml
FN:48,_RNvXNtCsbki8KyO8pxI_5woxml5woxmlINtB2_9XmlWriterINtNtCshQnx6jIQVne_5alloc3vec3VechEENtNtCs8eLU2w1HFUD_4core3fmt5Debug3fmtCscvny05FXxD1_5woxml
FN:416,_RNvXs0_NtCsbki8KyO8pxI_5woxml5woxmlNtNtCshQnx6jIQVne_5alloc6string6StringINtNtCs8eLU2w1HFUD_4core7convert7TryFromINtB5_9XmlWriterINtNtBB_3vec3VechEEE8try_from
FN:425,_RNvXs1_NtCsbki8KyO8pxI_5woxml5woxmlNtNtCshQnx6jIQVne_5alloc6string6StringINtNtCs8eLU2w1HFUD_4core7convert7TryFromINtB5_9XmlWriterNtNtCsa1TR6AkgUFY_5bytes9bytes_mut8BytesMutEE8try_from
FN:405,_RNvMs_NtCsbki8KyO8pxI_5woxml5woxmlINtB4_9XmlWriterINtNtCshQnx6jIQVne_5alloc3vec3VechEE10into_innerB6_
FN:405,_RNvMs_NtCsbki8KyO8pxI_5woxml5woxmlINtB4_9XmlWriterNtNtCsa1TR6AkgUFY_5bytes9bytes_mut8BytesMutE10into_innerB6_
FN:154,_RNCNvMs_NtCscX8a7bCRWY9_5woxml5woxmlINtB6_9XmlWriterpE7ns_decl0B8_
FN:154,_RNCNvMs_NtCscX8a7bCRWY9_5woxml5woxmlINtB6_9XmlWriterpE7ns_decls_0B8_
FN:195,_RNvMs_NtCscX8a7bCRWY9_5woxml5woxmlINtB4_9XmlWriterpE10begin_elemB6_
FN:215,_RNvMs_NtCscX8a7bCRWY9_5woxml5woxmlINtB4_9XmlWriterpE10close_elemB6_
FN:256,_RNvMs_NtCscX8a7bCRWY9_5woxml5woxmlINtB4_9XmlWriterpE10empty_elemB6_
FN:405,_RNvMs_NtCscX8a7bCRWY9_5woxml5woxmlINtB4_9XmlWriterpE10into_innerB6_
FN:72,_RNvMs_NtCscX8a7bCRWY9_5woxml5woxmlINtB4_9XmlWriterpE11pretty_modeB6_
FN:345,_RNvMs_NtCscX8a7bCRWY9_5woxml5woxmlINtB4_9XmlWriterpE11write_sliceB6_
FN:57,_RNvMs_NtCscX8a7bCRWY9_5woxml5woxmlINtB4_9XmlWriterpE12compact_modeB6_
FN:100,_RNvMs_NtCscX8a7bCRWY9_5woxml5woxmlINtB4_9XmlWriterpE13set_namespaceB6_
FN:89,_RNvMs_NtCscX8a7bCRWY9_5woxml5woxmlINtB4_9XmlWriterpE15set_pretty_modeB6_
FN:105,_RNvMs_NtCscX8a7bCRWY9_5woxml5woxmlINtB4_9XmlWriterpE15unset_namespaceB6_
FN:84,_RNvMs_NtCscX8a7bCRWY9_5woxml5woxmlINtB4_9XmlWriterpE16set_compact_modeB6_
FN:112,_RNvMs_NtCscX8a7bCRWY9_5woxml5woxmlINtB4_9XmlWriterpE3dtdB6_
FN:276,_RNvMs_NtCscX8a7bCRWY9_5woxml5woxmlINtB4_9XmlWriterpE4attrB6_
FN:163,_RNvMs_NtCscX8a7bCRWY9_5woxml5woxmlINtB4_9XmlWriterpE4elemB6_
FN:323,_RNvMs_NtCscX8a7bCRWY9_5woxml5woxmlINtB4_9XmlWriterpE4textB6_
FN:353,_RNvMs_NtCscX8a7bCRWY9_5woxml5woxmlINtB4_9XmlWriterpE5cdataB6_
FN:387,_RNvMs_NtCscX8a7bCRWY9_5woxml5woxmlINtB4_9XmlWriterpE5closeB6_
FN:397,_RNvMs_NtCscX8a7bCRWY9_5woxml5woxmlINtB4_9XmlWriterpE5flushB6_
FN:337,_RNvMs_NtCscX8a7bCRWY9_5woxml5woxmlINtB4_9XmlWriterpE5writeB6_
FN:305,_RNvMs_NtCscX8a7bCRWY9_5woxml5woxmlINtB4_9XmlWriterpE6escapeB6_
FN:118,_RNvMs_NtCscX8a7bCRWY9_5woxml5woxmlINtB4_9XmlWriterpE6indentB6_
FN:371,_RNvMs_NtCscX8a7bCRWY9_5woxml5woxmlINtB4_9XmlWriterpE7commentB6_
FN:146,_RNvMs_NtCscX8a7bCRWY9_5woxml5woxmlINtB4_9XmlWriterpE7ns_declB6_
FN:291,_RNvMs_NtCscX8a7bCRWY9_5woxml5woxmlINtB4_9XmlWriterpE8attr_escB6_
FN:231,_RNvMs_NtCscX8a7bCRWY9_5woxml5woxmlINtB4_9XmlWriterpE8end_elemB6_
FN:176,_RNvMs_NtCscX8a7bCRWY9_5woxml5woxmlINtB4_9XmlWriterpE9elem_textB6_
FN:95,_RNvMs_NtCscX8a7bCRWY9_5woxml5woxmlINtB4_9XmlWriterpE9namespaceB6_
FN:134,_RNvMs_NtCscX8a7bCRWY9_5woxml5woxmlINtB4_9XmlWriterpE9ns_prefixB6_
FN:48,_RNvXININtCscX8a7bCRWY9_5woxml5woxml0pEINtB5_9XmlWriterpENtNtCs8eLU2w1HFUD_4core3fmt5Debug3fmtB7_
FN:416,_RNvXs0_NtCscX8a7bCRWY9_5woxml5woxmlNtNtCshQnx6jIQVne_5alloc6string6StringINtNtCs8eLU2w1HFUD_4core7convert7TryFromINtB5_9XmlWriterINtNtBB_3vec3VechEEE8try_from
FN:425,_RNvXs1_NtCscX8a7bCRWY9_5woxml5woxmlNtNtCshQnx6jIQVne_5alloc6string6StringINtNtCs8eLU2w1HFUD_4core7convert7TryFromINtB5_9XmlWriterNtNtCsa1TR6AkgUFY_5bytes9bytes_mut8BytesMutEE8try_from
FN:195,_RNvMs_NtCsbki8KyO8pxI_5woxml5woxmlINtB4_9XmlWriterNtCseJTFSU2SHJ0_5write11ChunkWriterE10begin_elemBO_
FN:215,_RNvMs_NtCsbki8KyO8pxI_5woxml5woxmlINtB4_9XmlWriterNtCseJTFSU2SHJ0_5write11ChunkWriterE10close_elemBO_
FN:405,_RNvMs_NtCsbki8KyO8pxI_5woxml5woxmlINtB4_9XmlWriterNtCseJTFSU2SHJ0_5write11ChunkWriterE10into_innerBO_
FN:57,_RNvMs_NtCsbki8KyO8pxI_5woxml5woxmlINtB4_9XmlWriterNtCseJTFSU2SHJ0_5write11ChunkWriterE12compact_modeBO_
FN:337,_RNvMs_NtCsbki8KyO8pxI_5woxml5woxmlINtB4_9XmlWriterNtCseJTFSU2SHJ0_5write11ChunkWriterE5writeBO_
FN:118,_RNvMs_NtCsbki8KyO8pxI_5woxml5woxmlINtB4_9XmlWriterNtCseJTFSU2SHJ0_5write11ChunkWriterE6indentBO_
FN:231,_RNvMs_NtCsbki8KyO8pxI_5woxml5woxmlINtB4_9XmlWriterNtCseJTFSU2SHJ0_5write11ChunkWriterE8end_elemBO_
FN:134,_RNvMs_NtCsbki8KyO8pxI_5woxml5woxmlINtB4_9XmlWriterNtCseJTFSU2SHJ0_5write11ChunkWriterE9ns_prefixBO_
FNDA:600,_RNCNvMs_NtCsbki8KyO8pxI_5woxml5woxmlINtB6_9XmlWriterINtNtCshQnx6jIQVne_5alloc3vec3VechEE7ns_decl0Cs1UYGqVQrMEC_5woxml
FNDA:600,_RNCNvMs_NtCsbki8KyO8pxI_5woxml5woxmlINtB6_9XmlWriterINtNtCshQnx6jIQVne_5alloc3vec3VechEE7ns_decls_0Cs1UYGqVQrMEC_5woxml
FNDA:1800,_RNvMs_NtCsbki8KyO8pxI_5woxml5woxmlINtB4_9XmlWriterINtNtCshQnx6jIQVne_5alloc3vec3VechEE10begin_elemCs1UYGqVQrMEC_5woxml
FNDA:6600,_RNvMs_NtCsbki8KyO8pxI_5woxml5woxmlINtB4_9XmlWriterINtNtCshQnx6jIQVne_5alloc3vec3VechEE10close_elemCs1UYGqVQrMEC_5woxml
FNDA:600,_RNvMs_NtCsbki8KyO8pxI_5woxml5woxmlINtB4_9XmlWriterINtNtCshQnx6jIQVne_5alloc3vec3VechEE10empty_elemCs1UYGqVQrMEC_5woxml
FNDA:2,_RNvMs_NtCsbki8KyO8pxI_5woxml5woxmlINtB4_9XmlWriterINtNtCshQnx6jIQVne_5alloc3vec3VechEE11pretty_modeCs1UYGqVQrMEC_5woxml
FNDA:19800,_RNvMs_NtCsbki8KyO8pxI_5woxml5woxmlINtB4_9XmlWriterINtNtCshQnx6jIQVne_5alloc3vec3VechEE11write_sliceCs1UYGqVQrMEC_5woxml
FNDA:4,_RNvMs_NtCsbki8KyO8pxI_5woxml5woxmlINtB4_9XmlWriterINtNtCshQnx6jIQVne_5alloc3vec3VechEE12compact_modeCs1UYGqVQrMEC_5woxml
FNDA:600,_RNvMs_NtCsbki8KyO8pxI_5woxml5woxmlINtB4_9XmlWriterINtNtCshQnx6jIQVne_5alloc3vec3VechEE13set_namespaceCs1UYGqVQrMEC_5woxml
FNDA:600,_RNvMs_NtCsbki8KyO8pxI_5woxml5woxmlINtB4_9XmlWriterINtNtCshQnx6jIQVne_5alloc3vec3VechEE15unset_namespaceCs1UYGqVQrMEC_5woxml
FNDA:2400,_RNvMs_NtCsbki8KyO8pxI_5woxml5woxmlINtB4_9XmlWriterINtNtCshQnx6jIQVne_5alloc3vec3VechEE4attrCs1UYGqVQrMEC_5woxml
FNDA:600,_RNvMs_NtCsbki8KyO8pxI_5woxml5woxmlINtB4_9XmlWriterINtNtCshQnx6jIQVne_5alloc3vec3VechEE4textCs1UYGqVQrMEC_5woxml
FNDA:600,_RNvMs_NtCsbki8KyO8pxI_5woxml5woxmlINtB4_9XmlWriterINtNtCshQnx6jIQVne_5alloc3vec3VechEE5cdataCs1UYGqVQrMEC_5woxml
FNDA:600,_RNvMs_NtCsbki8KyO8pxI_5woxml5woxmlINtB4_9XmlWriterINtNtCshQnx6jIQVne_5alloc3vec3VechEE5closeCs1UYGqVQrMEC_5woxml
FNDA:600,_RNvMs_NtCsbki8KyO8pxI_5woxml5woxmlINtB4_9XmlWriterINtNtCshQnx6jIQVne_5alloc3vec3VechEE5flushCs1UYGqVQrMEC_5woxml
FNDA:39998,_RNvMs_NtCsbki8KyO8pxI_5woxml5woxmlINtB4_9XmlWriterINtNtCshQnx6jIQVne_5alloc3vec3VechEE5writeCs1UYGqVQrMEC_5woxml
FNDA:3000,_RNvMs_NtCsbki8KyO8pxI_5woxml5woxmlINtB4_9XmlWriterINtNtCshQnx6jIQVne_5alloc3vec3VechEE6escapeCs1UYGqVQrMEC_5woxml
FNDA:5000,_RNvMs_NtCsbki8KyO8pxI_5woxml5woxmlINtB4_9XmlWriterINtNtCshQnx6jIQVne_5alloc3vec3VechEE6indentCs1UYGqVQrMEC_5woxml
FNDA:1200,_RNvMs_NtCsbki8KyO8pxI_5woxml5woxmlINtB4_9XmlWriterINtNtCshQnx6jIQVne_5alloc3vec3VechEE7commentCs1UYGqVQrMEC_5woxml
FNDA:600,_RNvMs_NtCsbki8KyO8pxI_5woxml5woxmlINtB4_9XmlWriterINtNtCshQnx6jIQVne_5alloc3vec3VechEE7ns_declCs1UYGqVQrMEC_5woxml
FNDA:600,_RNvMs_NtCsbki8KyO8pxI_5woxml5woxmlINtB4_9XmlWriterINtNtCshQnx6jIQVne_5alloc3vec3VechEE8attr_escCs1UYGqVQrMEC_5woxml
FNDA:1800,_RNvMs_NtCsbki8KyO8pxI_5woxml5woxmlINtB4_9XmlWriterINtNtCshQnx6jIQVne_5alloc3vec3VechEE8end_elemCs1UYGqVQrMEC_5woxml
FNDA:4200,_RNvMs_NtCsbki8KyO8pxI_5woxml5woxmlINtB4_9XmlWriterINtNtCshQnx6jIQVne_5alloc3vec3VechEE9ns_prefixCs1UYGqVQrMEC_5woxml
FNDA:0,_RNCNvMs_NtCsbki8KyO8pxI_5woxml5woxmlINtB6_9XmlWriterpE7ns_decl0B8_
FNDA:0,_RNCNvMs_NtCsbki8KyO8pxI_5woxml5woxmlINtB6_9XmlWriterpE7ns_decls_0B8_
FNDA:0,_RNvMs_NtCsbki8KyO8pxI_5woxml5woxmlINtB4_9XmlWriterpE10begin_elemB6_
FNDA:0,_RNvMs_NtCsbki8KyO8pxI_5woxml5woxmlINtB4_9XmlWriterpE10close_elemB6_
FNDA:0,_RNvMs_NtCsbki8KyO8pxI_5woxml5woxmlINtB4_9XmlWriterpE10empty_elemB6_
FNDA:0,_RNvMs_NtCsbki8KyO8pxI_5woxml5woxmlINtB4_9XmlWriterpE11pretty_modeB6_
FNDA:0,_RNvMs_NtCsbki8KyO8pxI_5woxml5woxmlINtB4_9XmlWriterpE11write_sliceB6_
FNDA:0,_RNvMs_NtCsbki8KyO8pxI_5woxml5woxmlINtB4_9XmlWriterpE12compact_modeB6_
FNDA:0,_RNvMs_NtCsbki8KyO8pxI_5woxml5woxmlINtB4_9XmlWriterpE13set_namespaceB6_
FNDA:0,_RNvMs_NtCsbki8KyO8pxI_5woxml5woxmlINtB4_9XmlWriterpE15set_pretty_modeB6_
FNDA:0,_RNvMs_NtCsbki8KyO8pxI_5woxml5woxmlINtB4_9XmlWriterpE15unset_namespaceB6_
FNDA:0,_RNvMs_NtCsbki8KyO8pxI_5woxml5woxmlINtB4_9XmlWriterpE16set_compact_modeB6_
FNDA:0,_RNvMs_NtCsbki8KyO8pxI_5woxml5woxmlINtB4_9XmlWriterpE3dtdB6_
FNDA:0,_RNvMs_NtCsbki8KyO8pxI_5woxml5woxmlINtB4_9XmlWriterpE4attrB6_
FNDA:0,_RNvMs_NtCsbki8KyO8pxI_5woxml5woxmlINtB4_9XmlWriterpE4elemB6_
FNDA:0,_RNvMs_NtCsbki8KyO8pxI_5woxml5woxmlINtB4_9XmlWriterpE4textB6_
FNDA:0,_RNvMs_NtCsbki8KyO8pxI_5woxml5woxmlINtB4_9XmlWriterpE5cdataB6_
FNDA:0,_RNvMs_NtCsbki8KyO8pxI_5woxml5woxmlINtB4_9XmlWriterpE5closeB6_
FNDA:0,_RNvMs_NtCsbki8KyO8pxI_5woxml5woxmlINtB4_9XmlWriterpE5flushB6_
FNDA:0,_RNvMs_NtCsbki8KyO8pxI_5woxml5woxmlINtB4_9XmlWriterpE5writeB6_
FNDA:0,_RNvMs_NtCsbki8KyO8pxI_5woxml5woxmlINtB4_9XmlWriterpE6escapeB6_
FNDA:0,_RNvMs_NtCsbki8KyO8pxI_5woxml5woxmlINtB4_9XmlWriterpE6indentB6_
FNDA:0,_RNvMs_NtCsbki8KyO8pxI_5woxml5woxmlINtB4_9XmlWriterpE7commentB6_
FNDA:0,_RNvMs_NtCsbki8KyO8pxI_5woxml5woxmlINtB4_9XmlWriterpE7ns_declB6_
FNDA:0,_RNvMs_NtCsbki8KyO8pxI_5woxml5woxmlINtB4_9XmlWriterpE8attr_escB6_
FNDA:0,_RNvMs_NtCsbki8KyO8pxI_5woxml5woxmlINtB4_9XmlWriterpE8end_elemB6_
FNDA:0,_RNvMs_NtCsbki8KyO8pxI_5woxml5woxmlINtB4_9XmlWriterpE9elem_textB6_
FNDA:0,_RNvMs_NtCsbki8KyO8pxI_5woxml5woxmlINtB4_9XmlWriterpE9namespaceB6_
FNDA:0,_RNvMs_NtCsbki8KyO8pxI_5woxml5woxmlINtB4_9XmlWriterpE9ns_prefixB6_
FNDA:0,_RNvXININtCsbki8KyO8pxI_5woxml5woxml0pEINtB5_9XmlWriterpENtNtCs8eLU2w1HFUD_4core3fmt5Debug3fmtB7_
FNDA:4,_RNCNvMs_NtCsbki8KyO8pxI_5woxml5woxmlINtB6_9XmlWriterINtNtCshQnx6jIQVne_5alloc3vec3VechEE7ns_decl0Cscvny05FXxD1_5woxml
FNDA:4,_RNCNvMs_NtCsbki8KyO8pxI_5woxml5woxmlINtB6_9XmlWriterINtNtCshQnx6jIQVne_5alloc3vec3VechEE7ns_decls_0Cscvny05FXxD1_5woxml
FNDA:2,_RNCNvMs_NtCsbki8KyO8pxI_5woxml5woxmlINtB6_9XmlWriterNtNtCsa1TR6AkgUFY_5bytes9bytes_mut8BytesMutE7ns_decl0Cscvny05FXxD1_5woxml
FNDA:2,_RNCNvMs_NtCsbki8KyO8pxI_5woxml5woxmlINtB6_9XmlWriterNtNtCsa1TR6AkgUFY_5bytes9bytes_mut8BytesMutE7ns_decls_0Cscvny05FXxD1_5woxml
FNDA:72,_RNvMs_NtCsbki8KyO8pxI_5woxml5woxmlINtB4_9XmlWriterINtNtCshQnx6jIQVne_5alloc3vec3VechEE10begin_elemCscvny05FXxD1_5woxml
FNDA:194,_RNvMs_NtCsbki8KyO8pxI_5woxml5woxmlINtB4_9XmlWriterINtNtCshQnx6jIQVne_5alloc3vec3VechEE10close_elemCscvny05FXxD1_5woxml
FNDA:8,_RNvMs_NtCsbki8KyO8pxI_5woxml5woxmlINtB4_9XmlWriterINtNtCshQnx6jIQVne_5alloc3vec3VechEE10empty_elemCscvny05FXxD1_5woxml
FNDA:16,_RNvMs_NtCsbki8KyO8pxI_5woxml5woxmlINtB4_9XmlWriterINtNtCshQnx6jIQVne_5alloc3vec3VechEE11pretty_modeCscvny05FXxD1_5woxml
FNDA:284,_RNvMs_NtCsbki8KyO8pxI_5woxml5woxmlINtB4_9XmlWriterINtNtCshQnx6jIQVne_5alloc3vec3VechEE11write_sliceCscvny05FXxD1_5woxml
FNDA:52,_RNvMs_NtCsbki8KyO8pxI_5woxml5woxmlINtB4_9XmlWriterINtNtCshQnx6jIQVne_5alloc3vec3VechEE12compact_modeCscvny05FXxD1_5woxml
FNDA:14,_RNvMs_NtCsbki8KyO8pxI_5woxml5woxmlINtB4_9XmlWriterINtNtCshQnx6jIQVne_5alloc3vec3VechEE13set_namespaceCscvny05FXxD1_5woxml
FNDA:2,_RNvMs_NtCsbki8KyO8pxI_5woxml5woxmlINtB4_9XmlWriterINtNtCshQnx6jIQVne_5alloc3vec3VechEE15set_pretty_modeCscvny05FXxD1_5woxml
FNDA:6,_RNvMs_NtCsbki8KyO8pxI_5woxml5woxmlINtB4_9XmlWriterINtNtCshQnx6jIQVne_5alloc3vec3VechEE15unset_namespaceCscvny05FXxD1_5woxml
FNDA:2,_RNvMs_NtCsbki8KyO8pxI_5woxml5woxmlINtB4_9XmlWriterINtNtCshQnx6jIQVne_5alloc3vec3VechEE16set_compact_modeCscvny05FXxD1_5woxml
FNDA:4,_RNvMs_NtCsbki8KyO8pxI_5woxml5woxmlINtB4_9XmlWriterINtNtCshQnx6jIQVne_5alloc3vec3VechEE3dtdCscvny05FXxD1_5woxml
FNDA:18,_RNvMs_NtCsbki8KyO8pxI_5woxml5woxmlINtB4_9XmlWriterINtNtCshQnx6jIQVne_5alloc3vec3VechEE4attrCscvny05FXxD1_5woxml
FNDA:8,_RNvMs_NtCsbki8KyO8pxI_5woxml5woxmlINtB4_9XmlWriterINtNtCshQnx6jIQVne_5alloc3vec3VechEE4elemCscvny05FXxD1_5woxml
FNDA:10,_RNvMs_NtCsbki8KyO8pxI_5woxml5woxmlINtB4_9XmlWriterINtNtCshQnx6jIQVne_5alloc3vec3VechEE4textCscvny05FXxD1_5woxml
FNDA:4,_RNvMs_NtCsbki8KyO8pxI_5woxml5woxmlINtB4_9XmlWriterINtNtCshQnx6jIQVne_5alloc3vec3VechEE5cdataCscvny05FXxD1_5woxml
FNDA:10,_RNvMs_NtCsbki8KyO8pxI_5woxml5woxmlINtB4_9XmlWriterINtNtCshQnx6jIQVne_5alloc3vec3VechEE5closeCscvny05FXxD1_5woxml
FNDA:4,_RNvMs_NtCsbki8KyO8pxI_5woxml5woxmlINtB4_9XmlWriterINtNtCshQnx6jIQVne_5alloc3vec3VechEE5flushCscvny05FXxD1_5woxml
FNDA:756,_RNvMs_NtCsbki8KyO8pxI_5woxml5woxmlINtB4_9XmlWriterINtNtCshQnx6jIQVne_5alloc3vec3VechEE5writeCscvny05FXxD1_5woxml
FNDA:42,_RNvMs_NtCsbki8KyO8pxI_5woxml5woxmlINtB4_9XmlWriterINtNtCshQnx6jIQVne_5alloc3vec3VechEE6escapeCscvny05FXxD1_5woxml
FNDA:130,_RNvMs_NtCsbki8KyO8pxI_5woxml5woxmlINtB4_9XmlWriterINtNtCshQnx6jIQVne_5alloc3vec3VechEE6indentCscvny05FXxD1_5woxml
FNDA:10,_RNvMs_NtCsbki8KyO8pxI_5woxml5woxmlINtB4_9XmlWriterINtNtCshQnx6jIQVne_5alloc3vec3VechEE7commentCscvny05FXxD1_5woxml
FNDA:6,_RNvMs_NtCsbki8KyO8pxI_5woxml5woxmlINtB4_9XmlWriterINtNtCshQnx6jIQVne_5alloc3vec3VechEE7ns_declCscvny05FXxD1_5woxml
FNDA:8,_RNvMs_NtCsbki8KyO8pxI_5woxml5woxmlINtB4_9XmlWriterINtNtCshQnx6jIQVne_5alloc3vec3VechEE8attr_escCscvny05FXxD1_5woxml
FNDA:72,_RNvMs_NtCsbki8KyO8pxI_5woxml5woxmlINtB4_9XmlWriterINtNtCshQnx6jIQVne_5alloc3vec3VechEE8end_elemCscvny05FXxD1_5woxml
FNDA:10,_RNvMs_NtCsbki8KyO8pxI_5woxml5woxmlINtB4_9XmlWriterINtNtCshQnx6jIQVne_5alloc3vec3VechEE9elem_textCscvny05FXxD1_5woxml
FNDA:6,_RNvMs_NtCsbki8KyO8pxI_5woxml5woxmlINtB4_9XmlWriterINtNtCshQnx6jIQVne_5alloc3vec3VechEE9namespaceCscvny05FXxD1_5woxml
FNDA:138,_RNvMs_NtCsbki8KyO8pxI_5woxml5woxmlINtB4_9XmlWriterINtNtCshQnx6jIQVne_5alloc3vec3VechEE9ns_prefixCscvny05FXxD1_5woxml
FNDA:6,_RNvMs_NtCsbki8KyO8pxI_5woxml5woxmlINtB4_9XmlWriterNtNtCsa1TR6AkgUFY_5bytes9bytes_mut8BytesMutE10begin_elemCscvny05FXxD1_5woxml
FNDA:20,_RNvMs_NtCsbki8KyO8pxI_5woxml5woxmlINtB4_9XmlWriterNtNtCsa1TR6AkgUFY_5bytes9bytes_mut8BytesMutE10close_elemCscvny05FXxD1_5woxml
FNDA:2,_RNvMs_NtCsbki8KyO8pxI_5woxml5woxmlINtB4_9XmlWriterNtNtCsa1TR6AkgUFY_5bytes9bytes_mut8BytesMutE10empty_elemCscvny05FXxD1_5woxml
FNDA:52,_RNvMs_NtCsbki8KyO8pxI_5woxml5woxmlINtB4_9XmlWriterNtNtCsa1TR6AkgUFY_5bytes9bytes_mut8BytesMutE11write_sliceCscvny05FXxD1_5woxml
FNDA:2,_RNvMs_NtCsbki8KyO8pxI_5woxml5woxmlINtB4_9XmlWriterNtNtCsa1TR6AkgUFY_5bytes9bytes_mut8BytesMutE12compact_modeCscvny05FXxD1_5woxml
FNDA:2,_RNvMs_NtCsbki8KyO8pxI_5woxml5woxmlINtB4_9XmlWriterNtNtCsa1TR6AkgUFY_5bytes9bytes_mut8BytesMutE13set_namespaceCscvny05FXxD1_5woxml
FNDA:2,_RNvMs_NtCsbki8KyO8pxI_5woxml5woxmlINtB4_9XmlWriterNtNtCsa1TR6AkgUFY_5bytes9bytes_mut8BytesMutE15unset_namespaceCscvny05FXxD1_5woxml
FNDA:8,_RNvMs_NtCsbki8KyO8pxI_5woxml5woxmlINtB4_9XmlWriterNtNtCsa1TR6AkgUFY_5bytes9bytes_mut8BytesMutE4attrCscvny05FXxD1_5woxml
FNDA:2,_RNvMs_NtCsbki8KyO8pxI_5woxml5woxmlINtB4_9XmlWriterNtNtCsa1TR6AkgUFY_5bytes9bytes_mut8BytesMutE4textCscvny05FXxD1_5woxml
FNDA:2,_RNvMs_NtCsbki8KyO8pxI_5woxml5woxmlINtB4_9XmlWriterNtNtCsa1TR6AkgUFY_5bytes9bytes_mut8BytesMutE5cdataCscvny05FXxD1_5woxml
FNDA:2,_RNvMs_NtCsbki8KyO8pxI_5woxml5woxmlINtB4_9XmlWriterNtNtCsa1TR6AkgUFY_5bytes9bytes_mut8BytesMutE5closeCscvny05FXxD1_5woxml
FNDA:2,_RNvMs_NtCsbki8KyO8pxI_5woxml5woxmlINtB4_9XmlWriterNtNtCsa1TR6AkgUFY_5bytes9bytes_mut8BytesMutE5flushCscvny05FXxD1_5woxml
FNDA:118,_RNvMs_NtCsbki8KyO8pxI_5woxml5woxmlINtB4_9XmlWriterNtNtCsa1TR6AkgUFY_5bytes9bytes_mut8BytesMutE5writeCscvny05FXxD1_5woxml
FNDA:8,_RNvMs_NtCsbki8KyO8pxI_5woxml5woxmlINtB4_9XmlWriterNtNtCsa1TR6AkgUFY_5bytes9bytes_mut8BytesMutE6escapeCscvny05FXxD1_5woxml
FNDA:14,_RNvMs_NtCsbki8KyO8pxI_5woxml5woxmlINtB4_9XmlWriterNtNtCsa1TR6AkgUFY_5bytes9bytes_mut8BytesMutE6indentCscvny05FXxD1_5woxml
FNDA:2,_RNvMs_NtCsbki8KyO8pxI_5woxml5woxmlINtB4_9XmlWriterNtNtCsa1TR6AkgUFY_5bytes9bytes_mut8BytesMutE7commentCscvny05FXxD1_5woxml
FNDA:2,_RNvMs_NtCsbki8KyO8pxI_5woxml5woxmlINtB4_9XmlWriterNtNtCsa1TR6AkgUFY_5bytes9bytes_mut8BytesMutE7ns_declCscvny05FXxD1_5woxml
FNDA:2,_RNvMs_NtCsbki8KyO8pxI_5woxml5woxmlINtB4_9XmlWriterNtNtCsa1TR6AkgUFY_5bytes9bytes_mut8BytesMutE8attr_escCscvny05FXxD1_5woxml
FNDA:6,_RNvMs_NtCsbki8KyO8pxI_5woxml5woxmlINtB4_9XmlWriterNtNtCsa1TR6AkgUFY_5bytes9bytes_mut8BytesMutE8end_elemCscvny05FXxD1_5woxml
FNDA:14,_RNvMs_NtCsbki8KyO8pxI_5woxml5woxmlINtB4_9XmlWriterNtNtCsa1TR6AkgUFY_5bytes9bytes_mut8BytesMutE9ns_prefixCscvny05FXxD1_5woxml
FNDA:2,_RNvXNtCsbki8KyO8pxI_5woxml5woxmlINtB2_9XmlWriterINtNtCshQnx6jIQVne_5alloc3vec3VechEENtNtCs8eLU2w1HFUD_4core3fmt5Debug3fmtCscvny05FXxD1_5woxml
FNDA:54,_RNvXs0_NtCsbki8KyO8pxI_5woxml5woxmlNtNtCshQnx6jIQVne_5alloc6string6StringINtNtCs8eLU2w1HFUD_4core7convert7TryFromINtB5_9XmlWriterINtNtBB_3vec3VechEEE8try_from
FNDA:2,_RNvXs1_NtCsbki8KyO8pxI_5woxml5woxmlNtNtCshQnx6jIQVne_5alloc6string6StringINtNtCs8eLU2w1HFUD_4core7convert7TryFromINtB5_9XmlWriterNtNtCsa1TR6AkgUFY_5bytes9bytes_mut8BytesMutEE8try_from
FNDA:56,_RNvMs_NtCsbki8KyO8pxI_5woxml5woxmlINtB4_9XmlWriterINtNtCshQnx6jIQVne_5alloc3vec3VechEE10into_innerB6_
FNDA:2,_RNvMs_NtCsbki8KyO8pxI_5woxml5woxmlINtB4_9XmlWriterNtNtCsa1TR6AkgUFY_5bytes9bytes_mut8BytesMutE10into_innerB6_
FNDA:0,_RNCNvMs_NtCscX8a7bCRWY9_5woxml5woxmlINtB6_9XmlWriterpE7ns_decl0B8_
FNDA:0,_RNCNvMs_NtCscX8a7bCRWY9_5woxml5woxmlINtB6_9XmlWriterpE7ns_decls_0B8_
FNDA:0,_RNvMs_NtCscX8a7bCRWY9_5woxml5woxmlINtB4_9XmlWriterpE10begin_elemB6_
FNDA:0,_RNvMs_NtCscX8a7bCRWY9_5woxml5woxmlINtB4_9XmlWriterpE10close_elemB6_
FNDA:0,_RNvMs_NtCscX8a7bCRWY9_5woxml5woxmlINtB4_9XmlWriterpE10empty_elemB6_
FNDA:0,_RNvMs_NtCscX8a7bCRWY9_5woxml5woxmlINtB4_9XmlWriterpE10into_innerB6_
FNDA:0,_RNvMs_NtCscX8a7bCRWY9_5woxml5woxmlINtB4_9XmlWriterpE11pretty_modeB6_
FNDA:0,_RNvMs_NtCscX8a7bCRWY9_5woxml5woxmlINtB4_9XmlWriterpE11write_sliceB6_
FNDA:0,_RNvMs_NtCscX8a7bCRWY9_5woxml5woxmlINtB4_9XmlWriterpE12compact_modeB6_
FNDA:0,_RNvMs_NtCscX8a7bCRWY9_5woxml5woxmlINtB4_9XmlWriterpE13set_namespaceB6_
FNDA:0,_RNvMs_NtCscX8a7bCRWY9_5woxml5woxmlINtB4_9XmlWriterpE15set_pretty_modeB6_
FNDA:0,_RNvMs_NtCscX8a7bCRWY9_5woxml5woxmlINtB4_9XmlWriterpE15unset_namespaceB6_
FNDA:0,_RNvMs_NtCscX8a7bCRWY9_5woxml5woxmlINtB4_9XmlWriterpE16set_compact_modeB6_
FNDA:0,_RNvMs_NtCscX8a7bCRWY9_5woxml5woxmlINtB4_9XmlWriterpE3dtdB6_
FNDA:0,_RNvMs_NtCscX8a7bCRWY9_5woxml5woxmlINtB4_9XmlWriterpE4attrB6_
FNDA:0,_RNvMs_NtCscX8a7bCRWY9_5woxml5woxmlINtB4_9XmlWriterpE4elemB6_
FNDA:0,_RNvMs_NtCscX8a7bCRWY9_5woxml5woxmlINtB4_9XmlWriterpE4textB6_
FNDA:0,_RNvMs_NtCscX8a7bCRWY9_5woxml5woxmlINtB4_9XmlWriterpE5cdataB6_
FNDA:0,_RNvMs_NtCscX8a7bCRWY9_5woxml5woxmlINtB4_9XmlWriterpE5closeB6_
FNDA:0,_RNvMs_NtCscX8a7bCRWY9_5woxml5woxmlINtB4_9XmlWriterpE5flushB6_
FNDA:0,_RNvMs_NtCscX8a7bCRWY9_5woxml5woxmlINtB4_9XmlWriterpE5writeB6_
FNDA:0,_RNvMs_NtCscX8a7bCRWY9_5woxml5woxmlINtB4_9XmlWriterpE6escapeB6_
FNDA:0,_RNvMs_NtCscX8a7bCRWY9_5woxml5woxmlINtB4_9XmlWriterpE6indentB6_
FNDA:0,_RNvMs_NtCscX8a7bCRWY9_5woxml5woxmlINtB4_9XmlWriterpE7commentB6_
FNDA:0,_RNvMs_NtCscX8a7bCRWY9_5woxml5woxmlINtB4_9XmlWriterpE7ns_declB6_
FNDA:0,_RNvMs_NtCscX8a7bCRWY9_5woxml5woxmlINtB4_9XmlWriterpE8attr_escB6_
FNDA:0,_RNvMs_NtCscX8a7bCRWY9_5woxml5woxmlINtB4_9XmlWriterpE8end_elemB6_
FNDA:0,_RNvMs_NtCscX8a7bCRWY9_5woxml5woxmlINtB4_9XmlWriterpE9elem_textB6_
FNDA:0,_RNvMs_NtCscX8a7bCRWY9_5woxml5woxmlINtB4_9XmlWriterpE9namespaceB6_
FNDA:0,_RNvMs_NtCscX8a7bCRWY9_5woxml5woxmlINtB4_9XmlWriterpE9ns_prefixB6_
FNDA:0,_RNvXININtCscX8a7bCRWY9_5woxml5woxml0pEINtB5_9XmlWriterpENtNtCs8eLU2w1HFUD_4core3fmt5Debug3fmtB7_
FNDA:0,_RNvXs0_NtCscX8a7bCRWY9_5woxml5woxmlNtNtCshQnx6jIQVne_5alloc6string6StringINtNtCs8eLU2w1HFUD_4core7convert7TryFromINtB5_9XmlWriterINtNtBB_3vec3VechEEE8try_from
FNDA:0,_RNvXs1_NtCscX8a7bCRWY9_5woxml5woxmlNtNtCshQnx6jIQVne_5alloc6string6StringINtNtCs8eLU2w1HFUD_4core7convert7TryFromINtB5_9XmlWriterNtNtCsa1TR6AkgUFY_5bytes9bytes_mut8BytesMutEE8try_from
FNDA:4,_RNvMs_NtCsbki8KyO8pxI_5woxml5woxmlINtB4_9XmlWriterNtCseJTFSU2SHJ0_5write11ChunkWriterE10begin_elemBO_
FNDA:8,_RNvMs_NtCsbki8KyO8pxI_5woxml5woxmlINtB4_9XmlWriterNtCseJTFSU2SHJ0_5write11ChunkWriterE10close_elemBO_
FNDA:4,_RNvMs_NtCsbki8KyO8pxI_5woxml5woxmlINtB4_9XmlWriterNtCseJTFSU2SHJ0_5write11ChunkWriterE10into_innerBO_
FNDA:4,_RNvMs_NtCsbki8KyO8pxI_5woxml5woxmlINtB4_9XmlWriterNtCseJTFSU2SHJ0_5write11ChunkWriterE12compact_modeBO_
FNDA:12,_RNvMs_NtCsbki8KyO8pxI_5woxml5woxmlINtB4_9XmlWriterNtCseJTFSU2SHJ0_5write11ChunkWriterE5writeBO_
FNDA:4,_RNvMs_NtCsbki8KyO8pxI_5woxml5woxmlINtB4_9XmlWriterNtCseJTFSU2SHJ0_5write11ChunkWriterE6indentBO_
FNDA:4,_RNvMs_NtCsbki8KyO8pxI_5woxml5woxmlINtB4_9XmlWriterNtCseJTFSU2SHJ0_5write11ChunkWriterE8end_elemBO_
FNDA:4,_RNvMs_NtCsbki8KyO8pxI_5woxml5woxmlINtB4_9XmlWriterNtCseJTFSU2SHJ0_5write11ChunkWriterE9ns_prefixBO_
FNF:33
FNH:33
DA:48,2
DA:49,2
DA:50,2
DA:57,62
DA:58,62
DA:59,62
DA:60,62
DA:61,62
DA:62,62
DA:63,62
DA:64,62
DA:65,62
DA:66,62
DA:72,18
DA:73,18
DA:74,18
DA:75,18
DA:76,18
DA:77,18
DA:78,18
DA:79,18
DA:80,18
DA:81,18
DA:84,2
DA:85,2
DA:86,2
DA:89,2
DA:90,2
DA:91,2
DA:95,6
DA:96,6
DA:97,6
DA:100,616
DA:101,616
DA:102,616
DA:105,608
DA:106,608
DA:107,608
DA:112,4
DA:113,4
DA:114,4
DA:115,4
DA:116,4
DA:118,5148
DA:119,5148
DA:120,1858
DA:121,1840
DA:122,18
DA:123,18
DA:124,18
DA:125,1858
DA:126,1638
DA:128,3290
DA:129,5148
DA:130,5148
DA:134,4356
DA:135,4356
DA:136,1830
DA:137,1830
DA:138,2526
DA:139,4356
DA:140,4356
DA:146,608
DA:147,608
DA:148,2
DA:149,606
DA:151,1212
DA:152,1212
DA:153,1212
DA:154,1212
DA:155,1212
DA:157,606
DA:158,608
DA:163,8
DA:164,8
DA:165,8
DA:166,8
DA:167,8
DA:168,8
DA:169,8
DA:170,8
DA:171,8
DA:176,10
DA:177,10
DA:178,10
DA:179,10
DA:180,10
DA:181,10
DA:182,10
DA:183,10
DA:185,10
DA:187,10
DA:188,10
DA:189,10
DA:190,10
DA:195,1882
DA:196,1882
DA:198,1882
DA:199,1232
DA:200,1232
DA:201,1232
DA:202,1882
DA:203,1882
DA:204,1882
DA:205,1882
DA:207,1882
DA:208,1882
DA:209,1882
DA:210,1882
DA:215,6822
DA:216,6822
DA:217,1880
DA:218,1846
DA:220,34
DA:222,1880
DA:223,4942
DA:224,6822
DA:225,6822
DA:231,1882
DA:232,1882
DA:233,1882
DA:234,1880
DA:236,1880
DA:237,34
DA:238,1846
DA:239,1846
DA:240,1224
DA:241,622
DA:242,1846
DA:243,1846
DA:244,1846
DA:245,1846
DA:246,1846
DA:247,1846
DA:249,2
DA:251,1882
DA:256,610
DA:257,610
DA:259,610
DA:260,610
DA:261,610
DA:262,610
DA:263,610
DA:264,610
DA:265,610
DA:266,610
DA:267,610
DA:268,610
DA:269,610
DA:276,2426
DA:277,2426
DA:278,2
DA:279,2424
DA:280,2424
DA:281,2424
DA:282,2424
DA:283,2424
DA:284,2424
DA:285,2426
DA:291,610
DA:292,610
DA:293,2
DA:294,608
DA:295,608
DA:296,608
DA:297,608
DA:298,608
DA:299,608
DA:300,610
DA:305,3050
DA:306,22588
DA:307,2
DA:308,1212
DA:309,1216
DA:310,6
DA:311,8
DA:312,8
DA:313,2
DA:314,20136
DA:317,3050
DA:318,3050
DA:323,612
DA:324,612
DA:326,612
DA:327,612
DA:328,612
DA:329,612
DA:330,612
DA:331,612
DA:332,612
DA:337,40884
DA:338,40884
DA:339,40884
DA:340,40884
DA:345,20136
DA:346,20136
DA:347,20136
DA:348,20136
DA:353,606
DA:354,606
DA:356,606
DA:357,606
DA:358,606
DA:359,606
DA:360,606
DA:361,202
DA:362,404
DA:363,606
DA:364,606
DA:365,606
DA:366,606
DA:371,1212
DA:372,1212
DA:374,1212
DA:375,1208
DA:376,1208
DA:377,1208
DA:378,1212
DA:379,1212
DA:380,1212
DA:381,1212
DA:382,1212
DA:387,612
DA:388,612
DA:389,10
DA:391,612
DA:392,612
DA:397,606
DA:398,606
DA:400,606
DA:401,606
DA:405,62
DA:406,62
DA:407,62
DA:416,54
DA:417,54
DA:418,54
DA:425,2
DA:426,2
DA:427,2
BRDA:119,0,0,1858
BRDA:119,0,1,3290
BRDA:120,0,0,1840
BRDA:120,0,1,18
BRDA:135,0,0,1830
BRDA:135,0,1,2526
BRDA:147,0,0,2
BRDA:147,0,1,606
BRDA:198,0,0,1232
BRDA:198,0,1,650
BRDA:216,0,0,1880
BRDA:216,0,1,4942
BRDA:217,0,0,1846
BRDA:217,0,1,34
BRDA:236,0,0,34
BRDA:236,0,1,1846
BRDA:239,0,0,1224
BRDA:239,0,1,622
BRDA:259,0,0,610
BRDA:259,0,1,0
BRDA:277,0,0,2
BRDA:277,0,1,2424
BRDA:292,0,0,2
BRDA:292,0,1,608
BRDA:313,0,0,2
BRDA:313,0,1,0
BRDA:326,0,0,612
BRDA:326,0,1,0
BRDA:356,0,0,606
BRDA:356,0,1,0
BRDA:360,0,0,202
BRDA:360,0,1,404
BRDA:374,0,0,1208
BRDA:374,0,1,4
BRF:34
BRH:30
LF:242
LH:242
end_of_record
SF:/home/stephan/.dbx/cstepkun/woxml/src/write.rs
FN:45,_RNvXNtCsbki8KyO8pxI_5woxml5writeINtNtCshQnx6jIQVne_5alloc3vec3VechENtB2_5Write5flushCs1UYGqVQrMEC_5woxml
FN:50,_RNvXNtCsbki8KyO8pxI_5woxml5writeINtNtCshQnx6jIQVne_5alloc3vec3VechENtB2_5Write5writeCs1UYGqVQrMEC_5woxml
FN:29,_RNvYINtNtCshQnx6jIQVne_5alloc3vec3VechENtNtCsbki8KyO8pxI_5woxml5write5Write9write_allCs1UYGqVQrMEC_5woxml
FN:45,_RNvXNtCsbki8KyO8pxI_5woxml5writeINtNtCshQnx6jIQVne_5alloc3vec3VechENtB2_5Write5flushB4_
FN:50,_RNvXNtCsbki8KyO8pxI_5woxml5writeINtNtCshQnx6jIQVne_5alloc3vec3VechENtB2_5Write5writeB4_
FN:59,_RNvXs_NtCsbki8KyO8pxI_5woxml5writeNtNtCsa1TR6AkgUFY_5bytes9bytes_mut8BytesMutNtB4_5Write5flushB6_
FN:64,_RNvXs_NtCsbki8KyO8pxI_5woxml5writeNtNtCsa1TR6AkgUFY_5bytes9bytes_mut8BytesMutNtB4_5Write5writeB6_
FN:29,_RNvYpNtNtCsbki8KyO8pxI_5woxml5write5Write9write_allB7_
FN:29,_RNvYNtNtCsa1TR6AkgUFY_5bytes9bytes_mut8BytesMutNtNtCsbki8KyO8pxI_5woxml5write5Write9write_allCscvny05FXxD1_5woxml
FN:29,_RNvYINtNtCshQnx6jIQVne_5alloc3vec3VechENtNtCsbki8KyO8pxI_5woxml5write5Write9write_allCscvny05FXxD1_5woxml
FN:59,_RNvXs_NtCsbki8KyO8pxI_5woxml5writeNtNtCsa1TR6AkgUFY_5bytes9bytes_mut8BytesMutNtB4_5Write5flushCscvny05FXxD1_5woxml
FN:64,_RNvXs_NtCsbki8KyO8pxI_5woxml5writeNtNtCsa1TR6AkgUFY_5bytes9bytes_mut8BytesMutNtB4_5Write5writeCscvny05FXxD1_5woxml
FN:45,_RNvXNtCsbki8KyO8pxI_5woxml5writeINtNtCshQnx6jIQVne_5alloc3vec3VechENtB2_5Write5flushCscvny05FXxD1_5woxml
FN:50,_RNvXNtCsbki8KyO8pxI_5woxml5writeINtNtCshQnx6jIQVne_5alloc3vec3VechENtB2_5Write5writeCscvny05FXxD1_5woxml
FN:45,_RNvXNtCscX8a7bCRWY9_5woxml5writeINtNtCshQnx6jIQVne_5alloc3vec3VechENtB2_5Write5flushB4_
FN:50,_RNvXNtCscX8a7bCRWY9_5woxml5writeINtNtCshQnx6jIQVne_5alloc3vec3VechENtB2_5Write5writeB4_
FN:59,_RNvXs_NtCscX8a7bCRWY9_5woxml5writeNtNtCsa1TR6AkgUFY_5bytes9bytes_mut8BytesMutNtB4_5Write5flushB6_
FN:64,_RNvXs_NtCscX8a7bCRWY9_5woxml5writeNtNtCsa1TR6AkgUFY_5bytes9bytes_mut8BytesMutNtB4_5Write5writeB6_
FN:29,_RNvYpNtNtCscX8a7bCRWY9_5woxml5write5Write9write_allB7_
FN:29,_RNvYNtCseJTFSU2SHJ0_5write10FailWriterNtNtCsbki8KyO8pxI_5woxml5write5Write9write_allB4_
FN:29,_RNvYNtCseJTFSU2SHJ0_5write11ChunkWriterNtNtCsbki8KyO8pxI_5woxml5write5Write9write_allB4_
FNDA:600,_RNvXNtCsbki8KyO8pxI_5woxml5writeINtNtCshQnx6jIQVne_5alloc3vec3VechENtB2_5Write5flushCs1UYGqVQrMEC_5woxml
FNDA:59798,_RNvXNtCsbki8KyO8pxI_5woxml5writeINtNtCshQnx6jIQVne_5alloc3vec3VechENtB2_5Write5writeCs1UYGqVQrMEC_5woxml
FNDA:59798,_RNvYINtNtCshQnx6jIQVne_5alloc3vec3VechENtNtCsbki8KyO8pxI_5woxml5write5Write9write_allCs1UYGqVQrMEC_5woxml
FNDA:0,_RNvXNtCsbki8KyO8pxI_5woxml5writeINtNtCshQnx6jIQVne_5alloc3vec3VechENtB2_5Write5flushB4_
FNDA:0,_RNvXNtCsbki8KyO8pxI_5woxml5writeINtNtCshQnx6jIQVne_5alloc3vec3VechENtB2_5Write5writeB4_
FNDA:0,_RNvXs_NtCsbki8KyO8pxI_5woxml5writeNtNtCsa1TR6AkgUFY_5bytes9bytes_mut8BytesMutNtB4_5Write5flushB6_
FNDA:0,_RNvXs_NtCsbki8KyO8pxI_5woxml5writeNtNtCsa1TR6AkgUFY_5bytes9bytes_mut8BytesMutNtB4_5Write5writeB6_
FNDA:0,_RNvYpNtNtCsbki8KyO8pxI_5woxml5write5Write9write_allB7_
FNDA:170,_RNvYNtNtCsa1TR6AkgUFY_5bytes9bytes_mut8BytesMutNtNtCsbki8KyO8pxI_5woxml5write5Write9write_allCscvny05FXxD1_5woxml
FNDA:1040,_RNvYINtNtCshQnx6jIQVne_5alloc3vec3VechENtNtCsbki8KyO8pxI_5woxml5write5Write9write_allCscvny05FXxD1_5woxml
FNDA:2,_RNvXs_NtCsbki8KyO8pxI_5woxml5writeNtNtCsa1TR6AkgUFY_5bytes9bytes_mut8BytesMutNtB4_5Write5flushCscvny05FXxD1_5woxml
FNDA:170,_RNvXs_NtCsbki8KyO8pxI_5woxml5writeNtNtCsa1TR6AkgUFY_5bytes9bytes_mut8BytesMutNtB4_5Write5writeCscvny05FXxD1_5woxml
FNDA:4,_RNvXNtCsbki8KyO8pxI_5woxml5writeINtNtCshQnx6jIQVne_5alloc3vec3VechENtB2_5Write5flushCscvny05FXxD1_5woxml
FNDA:1040,_RNvXNtCsbki8KyO8pxI_5woxml5writeINtNtCshQnx6jIQVne_5alloc3vec3VechENtB2_5Write5writeCscvny05FXxD1_5woxml
FNDA:0,_RNvXNtCscX8a7bCRWY9_5woxml5writeINtNtCshQnx6jIQVne_5alloc3vec3VechENtB2_5Write5flushB4_
FNDA:0,_RNvXNtCscX8a7bCRWY9_5woxml5writeINtNtCshQnx6jIQVne_5alloc3vec3VechENtB2_5Write5writeB4_
FNDA:0,_RNvXs_NtCscX8a7bCRWY9_5woxml5writeNtNtCsa1TR6AkgUFY_5bytes9bytes_mut8BytesMutNtB4_5Write5flushB6_
FNDA:0,_RNvXs_NtCscX8a7bCRWY9_5woxml5writeNtNtCsa1TR6AkgUFY_5bytes9bytes_mut8BytesMutNtB4_5Write5writeB6_
FNDA:0,_RNvYpNtNtCscX8a7bCRWY9_5woxml5write5Write9write_allB7_
FNDA:4,_RNvYNtCseJTFSU2SHJ0_5write10FailWriterNtNtCsbki8KyO8pxI_5woxml5write5Write9write_allB4_
FNDA:14,_RNvYNtCseJTFSU2SHJ0_5write11ChunkWriterNtNtCsbki8KyO8pxI_5woxml5write5Write9write_allB4_
FNF:5
FNH:5
DA:29,61026
DA:30,122052
DA:31,61028
DA:32,61026
DA:33,2
DA:36,61024
DA:37,61026
DA:45,604
DA:46,604
DA:47,604
DA:50,60838
DA:51,60838
DA:52,60838
DA:53,60838
DA:59,2
DA:60,2
DA:61,2
DA:64,170
DA:65,170
DA:66,170
DA:67,170
BRDA:30,0,0,61028
BRDA:30,0,1,61024
BRF:2
BRH:2
LF:21
LH:21
end_of_record